target datalayout = "e-m:e-p270:32:32-p271:32:32-p272:64:64-i64:64-i128:128-f80:128-n8:16:32:64-S128"
target triple = "x86_64-pc-linux-gnu"

%struct.hwloc_infos_s = type { ptr, i32, i32 }
%struct.hwloc_info_s = type { ptr, ptr }

; Function Attrs: nounwind uwtable
define internal i32 @hwloc__realloc_infos(ptr noundef %0, i32 noundef %1) #0 {
  %3 = alloca i32, align 4
  %4 = alloca ptr, align 8
  %5 = alloca i32, align 4
  %6 = alloca ptr, align 8
  %7 = alloca i32, align 4
  %8 = alloca i32, align 4
  store ptr %0, ptr %4, align 8, !tbaa !55
  store i32 %1, ptr %5, align 4, !tbaa !33
  call void @llvm.lifetime.start.p0(i64 8, ptr %6) #14
  call void @llvm.lifetime.start.p0(i64 4, ptr %7) #14
  %9 = load ptr, ptr %4, align 8, !tbaa !55
  %10 = getelementptr inbounds nuw %struct.hwloc_infos_s, ptr %9, i32 0, i32 2
  %11 = load i32, ptr %10, align 4, !tbaa !64
  %12 = load ptr, ptr %4, align 8, !tbaa !55
  %13 = getelementptr inbounds nuw %struct.hwloc_infos_s, ptr %12, i32 0, i32 1
  %14 = load i32, ptr %13, align 8, !tbaa !57
  %15 = load i32, ptr %5, align 4, !tbaa !33
  %16 = add i32 %14, %15
  %17 = icmp ugt i32 %11, %16
  br i1 %17, label %18, label %19

18:                                               ; preds = %2
  store i32 0, ptr %3, align 4
  store i32 1, ptr %8, align 4
  br label %44

19:                                               ; preds = %2
  %20 = load ptr, ptr %4, align 8, !tbaa !55
  %21 = getelementptr inbounds nuw %struct.hwloc_infos_s, ptr %20, i32 0, i32 1
  %22 = load i32, ptr %21, align 8, !tbaa !57
  %23 = load i32, ptr %5, align 4, !tbaa !33
  %24 = add i32 %22, %23
  %25 = add i32 %24, 7
  %26 = and i32 %25, -8
  store i32 %26, ptr %7, align 4, !tbaa !33
  %27 = load ptr, ptr %4, align 8, !tbaa !55
  %28 = getelementptr inbounds nuw %struct.hwloc_infos_s, ptr %27, i32 0, i32 0
  %29 = load ptr, ptr %28, align 8, !tbaa !58
  %30 = load i32, ptr %7, align 4, !tbaa !33
  %31 = zext i32 %30 to i64
  %32 = mul i64 %31, 16
  %33 = call ptr @realloc(ptr noundef %29, i64 noundef %32) #17
  store ptr %33, ptr %6, align 8, !tbaa !63
  %34 = load ptr, ptr %6, align 8, !tbaa !63
  %35 = icmp ne ptr %34, null
  br i1 %35, label %37, label %36

36:                                               ; preds = %19
  store i32 -1, ptr %3, align 4
  store i32 1, ptr %8, align 4
  br label %44

37:                                               ; preds = %19
  %38 = load ptr, ptr %6, align 8, !tbaa !63
  %39 = load ptr, ptr %4, align 8, !tbaa !55
  %40 = getelementptr inbounds nuw %struct.hwloc_infos_s, ptr %39, i32 0, i32 0
  store ptr %38, ptr %40, align 8, !tbaa !58
  %41 = load i32, ptr %7, align 4, !tbaa !33
  %42 = load ptr, ptr %4, align 8, !tbaa !55
  %43 = getelementptr inbounds nuw %struct.hwloc_infos_s, ptr %42, i32 0, i32 2
  store i32 %41, ptr %43, align 4, !tbaa !64
  store i32 0, ptr %3, align 4
  store i32 1, ptr %8, align 4
  br label %44

44:                                               ; preds = %37, %36, %18
  call void @llvm.lifetime.end.p0(i64 4, ptr %7) #14
  call void @llvm.lifetime.end.p0(i64 8, ptr %6) #14
  %45 = load i32, ptr %3, align 4
  ret i32 %45
}

; Function Attrs: nounwind uwtable
define hidden i32 @hwloc__move_infos(ptr noundef %0, ptr noundef %1) #0 {
  %3 = alloca i32, align 4
  %4 = alloca ptr, align 8
  %5 = alloca ptr, align 8
  %6 = alloca ptr, align 8
  %7 = alloca ptr, align 8
  %8 = alloca i32, align 4
  %9 = alloca i32, align 4
  %10 = alloca i32, align 4
  %11 = alloca i32, align 4
  store ptr %0, ptr %4, align 8, !tbaa !55
  store ptr %1, ptr %5, align 8, !tbaa !55
  call void @llvm.lifetime.start.p0(i64 8, ptr %6) #14
  call void @llvm.lifetime.start.p0(i64 8, ptr %7) #14
  call void @llvm.lifetime.start.p0(i64 4, ptr %8) #14
  call void @llvm.lifetime.start.p0(i64 4, ptr %9) #14
  call void @llvm.lifetime.start.p0(i64 4, ptr %10) #14
  %12 = load ptr, ptr %5, align 8, !tbaa !55
  %13 = getelementptr inbounds nuw %struct.hwloc_infos_s, ptr %12, i32 0, i32 1
  %14 = load i32, ptr %13, align 8, !tbaa !57
  store i32 %14, ptr %9, align 4, !tbaa !33
  %15 = load ptr, ptr %5, align 8, !tbaa !55
  %16 = getelementptr inbounds nuw %struct.hwloc_infos_s, ptr %15, i32 0, i32 0
  %17 = load ptr, ptr %16, align 8, !tbaa !58
  store ptr %17, ptr %7, align 8, !tbaa !63
  %18 = load ptr, ptr %4, align 8, !tbaa !55
  %19 = load i32, ptr %9, align 4, !tbaa !33
  %20 = call i32 @hwloc__realloc_infos(ptr noundef %18, i32 noundef %19)
  %21 = icmp slt i32 %20, 0
  br i1 %21, label %22, label %23

22:                                               ; preds = %2
  br label %74

23:                                               ; preds = %2
  %24 = load ptr, ptr %4, align 8, !tbaa !55
  %25 = getelementptr inbounds nuw %struct.hwloc_infos_s, ptr %24, i32 0, i32 1
  %26 = load i32, ptr %25, align 8, !tbaa !57
  store i32 %26, ptr %8, align 4, !tbaa !33
  %27 = load ptr, ptr %4, align 8, !tbaa !55
  %28 = getelementptr inbounds nuw %struct.hwloc_infos_s, ptr %27, i32 0, i32 0
  %29 = load ptr, ptr %28, align 8, !tbaa !58
  store ptr %29, ptr %6, align 8, !tbaa !63
  store i32 0, ptr %10, align 4, !tbaa !33
  br label %30

30:                                               ; preds = %57, %23
  %31 = load i32, ptr %10, align 4, !tbaa !33
  %32 = load i32, ptr %9, align 4, !tbaa !33
  %33 = icmp ult i32 %31, %32
  br i1 %33, label %34, label %62

34:                                               ; preds = %30
  %35 = load ptr, ptr %7, align 8, !tbaa !63
  %36 = load i32, ptr %10, align 4, !tbaa !33
  %37 = zext i32 %36 to i64
  %38 = getelementptr inbounds nuw %struct.hwloc_info_s, ptr %35, i64 %37
  %39 = getelementptr inbounds nuw %struct.hwloc_info_s, ptr %38, i32 0, i32 0
  %40 = load ptr, ptr %39, align 8, !tbaa !59
  %41 = load ptr, ptr %6, align 8, !tbaa !63
  %42 = load i32, ptr %8, align 4, !tbaa !33
  %43 = zext i32 %42 to i64
  %44 = getelementptr inbounds nuw %struct.hwloc_info_s, ptr %41, i64 %43
  %45 = getelementptr inbounds nuw %struct.hwloc_info_s, ptr %44, i32 0, i32 0
  store ptr %40, ptr %45, align 8, !tbaa !59
  %46 = load ptr, ptr %7, align 8, !tbaa !63
  %47 = load i32, ptr %10, align 4, !tbaa !33
  %48 = zext i32 %47 to i64
  %49 = getelementptr inbounds nuw %struct.hwloc_info_s, ptr %46, i64 %48
  %50 = getelementptr inbounds nuw %struct.hwloc_info_s, ptr %49, i32 0, i32 1
  %51 = load ptr, ptr %50, align 8, !tbaa !61
  %52 = load ptr, ptr %6, align 8, !tbaa !63
  %53 = load i32, ptr %8, align 4, !tbaa !33
  %54 = zext i32 %53 to i64
  %55 = getelementptr inbounds nuw %struct.hwloc_info_s, ptr %52, i64 %54
  %56 = getelementptr inbounds nuw %struct.hwloc_info_s, ptr %55, i32 0, i32 1
  store ptr %51, ptr %56, align 8, !tbaa !61
  br label %57

57:                                               ; preds = %34
  %58 = load i32, ptr %10, align 4, !tbaa !33
  %59 = add i32 %58, 1
  store i32 %59, ptr %10, align 4, !tbaa !33
  %60 = load i32, ptr %8, align 4, !tbaa !33
  %61 = add i32 %60, 1
  store i32 %61, ptr %8, align 4, !tbaa !33
  br label %30, !llvm.loop !68

62:                                               ; preds = %30
  %63 = load ptr, ptr %6, align 8, !tbaa !63
  %64 = load ptr, ptr %4, align 8, !tbaa !55
  %65 = getelementptr inbounds nuw %struct.hwloc_infos_s, ptr %64, i32 0, i32 0
  store ptr %63, ptr %65, align 8, !tbaa !58
  %66 = load i32, ptr %8, align 4, !tbaa !33
  %67 = load ptr, ptr %4, align 8, !tbaa !55
  %68 = getelementptr inbounds nuw %struct.hwloc_infos_s, ptr %67, i32 0, i32 1
  store i32 %66, ptr %68, align 8, !tbaa !57
  %69 = load ptr, ptr %7, align 8, !tbaa !63
  call void @free(ptr noundef %69) #14
  %70 = load ptr, ptr %5, align 8, !tbaa !55
  %71 = getelementptr inbounds nuw %struct.hwloc_infos_s, ptr %70, i32 0, i32 0
  store ptr null, ptr %71, align 8, !tbaa !58
  %72 = load ptr, ptr %5, align 8, !tbaa !55
  %73 = getelementptr inbounds nuw %struct.hwloc_infos_s, ptr %72, i32 0, i32 1
  store i32 0, ptr %73, align 8, !tbaa !57
  store i32 0, ptr %3, align 4
  store i32 1, ptr %11, align 4
  br label %103

74:                                               ; preds = %22
  store i32 0, ptr %10, align 4, !tbaa !33
  br label %75

75:                                               ; preds = %92, %74
  %76 = load i32, ptr %10, align 4, !tbaa !33
  %77 = load i32, ptr %9, align 4, !tbaa !33
  %78 = icmp ult i32 %76, %77
  br i1 %78, label %79, label %95

79:                                               ; preds = %75
  %80 = load ptr, ptr %7, align 8, !tbaa !63
  %81 = load i32, ptr %10, align 4, !tbaa !33
  %82 = zext i32 %81 to i64
  %83 = getelementptr inbounds nuw %struct.hwloc_info_s, ptr %80, i64 %82
  %84 = getelementptr inbounds nuw %struct.hwloc_info_s, ptr %83, i32 0, i32 0
  %85 = load ptr, ptr %84, align 8, !tbaa !59
  call void @free(ptr noundef %85) #14
  %86 = load ptr, ptr %7, align 8, !tbaa !63
  %87 = load i32, ptr %10, align 4, !tbaa !33
  %88 = zext i32 %87 to i64
  %89 = getelementptr inbounds nuw %struct.hwloc_info_s, ptr %86, i64 %88
  %90 = getelementptr inbounds nuw %struct.hwloc_info_s, ptr %89, i32 0, i32 1
  %91 = load ptr, ptr %90, align 8, !tbaa !61
  call void @free(ptr noundef %91) #14
  br label %92

92:                                               ; preds = %79
  %93 = load i32, ptr %10, align 4, !tbaa !33
  %94 = add i32 %93, 1
  store i32 %94, ptr %10, align 4, !tbaa !33
  br label %75, !llvm.loop !69

95:                                               ; preds = %75
  %96 = load ptr, ptr %7, align 8, !tbaa !63
  call void @free(ptr noundef %96) #14
  %97 = load ptr, ptr %5, align 8, !tbaa !55
  %98 = getelementptr inbounds nuw %struct.hwloc_infos_s, ptr %97, i32 0, i32 0
  store ptr null, ptr %98, align 8, !tbaa !58
  %99 = load ptr, ptr %5, align 8, !tbaa !55
  %100 = getelementptr inbounds nuw %struct.hwloc_infos_s, ptr %99, i32 0, i32 1
  store i32 0, ptr %100, align 8, !tbaa !57
  %101 = load ptr, ptr %5, align 8, !tbaa !55
  %102 = getelementptr inbounds nuw %struct.hwloc_infos_s, ptr %101, i32 0, i32 2
  store i32 0, ptr %102, align 4, !tbaa !64
  store i32 -1, ptr %3, align 4
  store i32 1, ptr %11, align 4
  br label %103

103:                                              ; preds = %95, %62
  call void @llvm.lifetime.end.p0(i64 4, ptr %10) #14
  call void @llvm.lifetime.end.p0(i64 4, ptr %9) #14
  call void @llvm.lifetime.end.p0(i64 4, ptr %8) #14
  call void @llvm.lifetime.end.p0(i64 8, ptr %7) #14
  call void @llvm.lifetime.end.p0(i64 8, ptr %6) #14
  %104 = load i32, ptr %3, align 4
  ret i32 %104
}