; Function Attrs: nounwind uwtable
define hidden range(i32 -1, 1) i32 @hwloc__move_infos(ptr noundef captures(none) %0, ptr noundef captures(none) %1) local_unnamed_addr #5 {
  %3 = getelementptr inbounds nuw i8, ptr %1, i64 8
  %4 = load i32, ptr %3, align 8, !tbaa !68
  %5 = load ptr, ptr %1, align 8, !tbaa !69
  %6 = getelementptr inbounds nuw i8, ptr %0, i64 12
  %7 = load i32, ptr %6, align 4, !tbaa !74
  %8 = getelementptr inbounds nuw i8, ptr %0, i64 8
  %9 = load i32, ptr %8, align 8, !tbaa !68
  %10 = add i32 %9, %4
  %11 = icmp ugt i32 %7, %10
  %.pre51 = load ptr, ptr %0, align 8, !tbaa !69
  br i1 %11, label %19, label %12

12:                                               ; preds = %2
  %13 = add i32 %10, 7
  %14 = and i32 %13, -8
  %15 = zext i32 %14 to i64
  %16 = shl nuw nsw i64 %15, 4
  %17 = tail call ptr @realloc(ptr noundef %.pre51, i64 noundef %16) #38
  %.not.i = icmp eq ptr %17, null
  br i1 %.not.i, label %hwloc__realloc_infos.exit.preheader, label %18

hwloc__realloc_infos.exit.preheader:              ; preds = %12
  %.not = icmp eq i32 %4, 0
  br i1 %.not, label %hwloc__realloc_infos.exit._crit_edge, label %hwloc__realloc_infos.exit.preheader44

hwloc__realloc_infos.exit.preheader44:            ; preds = %hwloc__realloc_infos.exit.preheader
  %wide.trip.count = zext i32 %4 to i64
  br label %hwloc__realloc_infos.exit

18:                                               ; preds = %12
  store ptr %17, ptr %0, align 8, !tbaa !69
  store i32 %14, ptr %6, align 4, !tbaa !74
  %.pre = load i32, ptr %8, align 8, !tbaa !68
  br label %19

19:                                               ; preds = %18, %2
  %20 = phi ptr [ %17, %18 ], [ %.pre51, %2 ]
  %21 = phi i32 [ %.pre, %18 ], [ %9, %2 ]
  %.not43 = icmp eq i32 %4, 0
  br i1 %.not43, label %._crit_edge, label %.lr.ph42.preheader

.lr.ph42.preheader:                               ; preds = %19
  %wide.trip.count49 = zext i32 %4 to i64
  br label %.lr.ph42

.lr.ph42:                                         ; preds = %.lr.ph42.preheader, %.lr.ph42
  %indvars.iv46 = phi i64 [ 0, %.lr.ph42.preheader ], [ %indvars.iv.next47, %.lr.ph42 ]
  %.03740 = phi i32 [ %21, %.lr.ph42.preheader ], [ %29, %.lr.ph42 ]
  %22 = getelementptr inbounds nuw %struct.hwloc_info_s, ptr %5, i64 %indvars.iv46
  %23 = load ptr, ptr %22, align 8, !tbaa !70
  %24 = zext i32 %.03740 to i64
  %25 = getelementptr inbounds nuw %struct.hwloc_info_s, ptr %20, i64 %24
  store ptr %23, ptr %25, align 8, !tbaa !70
  %26 = getelementptr inbounds nuw i8, ptr %22, i64 8
  %27 = load ptr, ptr %26, align 8, !tbaa !72
  %28 = getelementptr inbounds nuw i8, ptr %25, i64 8
  store ptr %27, ptr %28, align 8, !tbaa !72
  %indvars.iv.next47 = add nuw nsw i64 %indvars.iv46, 1
  %29 = add i32 %.03740, 1
  %exitcond50.not = icmp eq i64 %indvars.iv.next47, %wide.trip.count49
  br i1 %exitcond50.not, label %._crit_edge, label %.lr.ph42, !llvm.loop !78

._crit_edge:                                      ; preds = %.lr.ph42, %19
  %.037.lcssa = phi i32 [ %21, %19 ], [ %29, %.lr.ph42 ]
  store i32 %.037.lcssa, ptr %8, align 8, !tbaa !68
  tail call void @free(ptr noundef %5) #34
  store ptr null, ptr %1, align 8, !tbaa !69
  store i32 0, ptr %3, align 8, !tbaa !68
  br label %34

hwloc__realloc_infos.exit:                        ; preds = %hwloc__realloc_infos.exit.preheader44, %hwloc__realloc_infos.exit
  %indvars.iv = phi i64 [ 0, %hwloc__realloc_infos.exit.preheader44 ], [ %indvars.iv.next, %hwloc__realloc_infos.exit ]
  %30 = getelementptr inbounds nuw %struct.hwloc_info_s, ptr %5, i64 %indvars.iv
  %31 = load ptr, ptr %30, align 8, !tbaa !70
  tail call void @free(ptr noundef %31) #34
  %32 = getelementptr inbounds nuw i8, ptr %30, i64 8
  %33 = load ptr, ptr %32, align 8, !tbaa !72
  tail call void @free(ptr noundef %33) #34
  %indvars.iv.next = add nuw nsw i64 %indvars.iv, 1
  %exitcond.not = icmp eq i64 %indvars.iv.next, %wide.trip.count
  br i1 %exitcond.not, label %hwloc__realloc_infos.exit._crit_edge, label %hwloc__realloc_infos.exit, !llvm.loop !79

hwloc__realloc_infos.exit._crit_edge:             ; preds = %hwloc__realloc_infos.exit, %hwloc__realloc_infos.exit.preheader
  tail call void @free(ptr noundef %5) #34
  tail call void @llvm.memset.p0.i64(ptr noundef nonnull align 8 dereferenceable(16) %1, i8 0, i64 16, i1 false)
  br label %34

34:                                               ; preds = %hwloc__realloc_infos.exit._crit_edge, %._crit_edge
  %.036 = phi i32 [ -1, %hwloc__realloc_infos.exit._crit_edge ], [ 0, %._crit_edge ]
  ret i32 %.036
}